target datalayout = "e-m:e-p270:32:32-p271:32:32-p272:64:64-i64:64-i128:128-f80:128-n8:16:32:64-S128"
target triple = "x86_64-pc-linux-gnu"

%union.pthread_mutex_t = type { %struct.__pthread_mutex_s }
%struct.__pthread_mutex_s = type { i32, i32, i32, i32, i32, i16, i16, %struct.__pthread_internal_list }
%struct.__pthread_internal_list = type { ptr, ptr }
%struct.slurm_conf_t = type { i64, ptr, i16, ptr, ptr, ptr, ptr, ptr, i16, ptr, ptr, ptr, ptr, ptr, ptr, ptr, i16, ptr, ptr, ptr, ptr, i16, ptr, ptr, ptr, i64, ptr, ptr, ptr, ptr, i16, ptr, ptr, i16, i32, ptr, i32, ptr, i32, i32, ptr, ptr, i64, i64, ptr, i16, i16, ptr, i32, i32, ptr, i32, ptr, i32, i16, i16, i16, ptr, i16, i16, ptr, ptr, i32, i16, i16, ptr, i32, i16, ptr, ptr, ptr, ptr, i16, ptr, ptr, ptr, ptr, i32, ptr, ptr, ptr, ptr, i16, i16, ptr, i32, i32, i32, i16, i16, ptr, ptr, i16, ptr, ptr, i32, i32, i32, i32, i32, i64, i32, i32, i16, ptr, ptr, i32, ptr, ptr, ptr, i16, i32, ptr, ptr, i16, ptr, ptr, i32, i16, ptr, ptr, ptr, ptr, i32, i32, i16, i16, i32, ptr, i16, ptr, i32, i32, i32, i32, i32, i32, ptr, i16, ptr, ptr, i32, i16, ptr, i32, i16, i16, ptr, ptr, ptr, i16, ptr, ptr, ptr, ptr, i16, i16, ptr, i16, ptr, i16, ptr, i16, ptr, i16, ptr, ptr, ptr, ptr, i16, ptr, ptr, ptr, i32, ptr, i32, ptr, ptr, i16, ptr, ptr, i32, i16, ptr, ptr, i16, i16, ptr, i16, ptr, ptr, ptr, i32, ptr, i16, i16, ptr, ptr, ptr, ptr, ptr, ptr, ptr, ptr, i16, i32, i16, ptr, ptr, ptr, ptr, i32, ptr, ptr, ptr, i16, ptr, ptr, ptr, i16, ptr, i16, ptr, i16, i16, ptr }
%struct.slurm_preempt_ops = type { ptr, ptr, ptr }

@.str = private unnamed_addr constant [8 x i8] c"preempt\00", align 1
@g_context_lock = internal global %union.pthread_mutex_t zeroinitializer, align 8
@.str.1 = private unnamed_addr constant [29 x i8] c"%s: pthread_mutex_lock(): %m\00", align 1
@__func__.preempt_g_init = private unnamed_addr constant [15 x i8] c"preempt_g_init\00", align 1
@plugin_inited = internal global i32 0, align 4
@slurm_conf = external global %struct.slurm_conf_t, align 8
@ops = internal global %struct.slurm_preempt_ops zeroinitializer, align 8
@syms = internal global [3 x ptr] [ptr @.str.15, ptr @.str.16, ptr @.str.17], align 16
@g_context = internal global ptr null, align 8
@.str.2 = private unnamed_addr constant [32 x i8] c"cannot create %s context for %s\00", align 1
@youngest_order = internal global i8 0, align 1
@.str.3 = private unnamed_addr constant [15 x i8] c"youngest_first\00", align 1
@.str.4 = private unnamed_addr constant [23 x i8] c"preempt_youngest_first\00", align 1
@min_exempt_priority = internal global i32 -2, align 4
@.str.5 = private unnamed_addr constant [21 x i8] c"min_exempt_priority=\00", align 1
@.str.6 = private unnamed_addr constant [31 x i8] c"%s: pthread_mutex_unlock(): %m\00", align 1

; Function Attrs: nounwind uwtable
define dso_local i32 @preempt_g_init() #0 {
  %1 = alloca i32, align 4
  %2 = alloca ptr, align 8
  %3 = alloca ptr, align 8
  %4 = alloca i32, align 4
  %5 = alloca i32, align 4
  call void @llvm.lifetime.start.p0(i64 4, ptr %1) #6
  store i32 0, ptr %1, align 4
  call void @llvm.lifetime.start.p0(i64 8, ptr %2) #6
  store ptr @.str, ptr %2, align 8
  call void @llvm.lifetime.start.p0(i64 8, ptr %3) #6
  br label %6

6:                                                ; preds = %0
  call void @llvm.lifetime.start.p0(i64 4, ptr %4) #6
  %7 = call i32 @pthread_mutex_lock(ptr noundef @g_context_lock) #6
  store i32 %7, ptr %4, align 4
  %8 = load i32, ptr %4, align 4
  %9 = icmp ne i32 %8, 0
  br i1 %9, label %10, label %13

10:                                               ; preds = %6
  %11 = load i32, ptr %4, align 4
  %12 = call ptr @__errno_location() #7
  store i32 %11, ptr %12, align 4
  call void (ptr, ...) @fatal_abort(ptr noundef @.str.1, ptr noundef @__func__.preempt_g_init) #8
  unreachable

13:                                               ; preds = %6
  call void @llvm.lifetime.end.p0(i64 4, ptr %4) #6
  br label %14

14:                                               ; preds = %13
  br label %15

15:                                               ; preds = %14
  %16 = load i32, ptr @plugin_inited, align 4
  %17 = icmp ne i32 %16, 0
  br i1 %17, label %18, label %19

18:                                               ; preds = %15
  br label %51

19:                                               ; preds = %15
  %20 = load ptr, ptr getelementptr inbounds nuw (%struct.slurm_conf_t, ptr @slurm_conf, i32 0, i32 120), align 8
  %21 = icmp ne ptr %20, null
  br i1 %21, label %23, label %22

22:                                               ; preds = %19
  store i32 1, ptr @plugin_inited, align 4
  br label %51

23:                                               ; preds = %19
  %24 = load ptr, ptr %2, align 8
  %25 = load ptr, ptr getelementptr inbounds nuw (%struct.slurm_conf_t, ptr @slurm_conf, i32 0, i32 120), align 8
  %26 = call ptr @plugin_context_create(ptr noundef %24, ptr noundef %25, ptr noundef @ops, ptr noundef @syms, i64 noundef 24)
  store ptr %26, ptr @g_context, align 8
  %27 = load ptr, ptr @g_context, align 8
  %28 = icmp ne ptr %27, null
  br i1 %28, label %33, label %29

29:                                               ; preds = %23
  %30 = load ptr, ptr %2, align 8
  %31 = load ptr, ptr getelementptr inbounds nuw (%struct.slurm_conf_t, ptr @slurm_conf, i32 0, i32 120), align 8
  %32 = call i32 (ptr, ...) @error(ptr noundef @.str.2, ptr noundef %30, ptr noundef %31)
  store i32 -1, ptr %1, align 4
  store i32 0, ptr @plugin_inited, align 4
  br label %51

33:                                               ; preds = %23
  store i8 0, ptr @youngest_order, align 1
  %34 = load ptr, ptr getelementptr inbounds nuw (%struct.slurm_conf_t, ptr @slurm_conf, i32 0, i32 119), align 8
  %35 = call ptr @xstrcasestr(ptr noundef %34, ptr noundef @.str.3)
  %36 = icmp ne ptr %35, null
  br i1 %36, label %41, label %37

37:                                               ; preds = %33
  %38 = load ptr, ptr getelementptr inbounds nuw (%struct.slurm_conf_t, ptr @slurm_conf, i32 0, i32 163), align 8
  %39 = call ptr @xstrcasestr(ptr noundef %38, ptr noundef @.str.4)
  %40 = icmp ne ptr %39, null
  br i1 %40, label %41, label %42

41:                                               ; preds = %37, %33
  store i8 1, ptr @youngest_order, align 1
  br label %42

42:                                               ; preds = %41, %37
  store i32 -2, ptr @min_exempt_priority, align 4
  %43 = load ptr, ptr getelementptr inbounds nuw (%struct.slurm_conf_t, ptr @slurm_conf, i32 0, i32 119), align 8
  %44 = call ptr @xstrcasestr(ptr noundef %43, ptr noundef @.str.5)
  store ptr %44, ptr %3, align 8
  %45 = icmp ne ptr %44, null
  br i1 %45, label %46, label %50

46:                                               ; preds = %42
  %47 = load ptr, ptr %3, align 8
  %48 = getelementptr inbounds i8, ptr %47, i64 20
  %49 = call i32 @parse_uint32(ptr noundef %48, ptr noundef @min_exempt_priority)
  store i32 %49, ptr %1, align 4
  br label %50

50:                                               ; preds = %46, %42
  store i32 2, ptr @plugin_inited, align 4
  br label %51

51:                                               ; preds = %50, %29, %22, %18
  br label %52

52:                                               ; preds = %51
  call void @llvm.lifetime.start.p0(i64 4, ptr %5) #6
  %53 = call i32 @pthread_mutex_unlock(ptr noundef @g_context_lock) #6
  store i32 %53, ptr %5, align 4
  %54 = load i32, ptr %5, align 4
  %55 = icmp ne i32 %54, 0
  br i1 %55, label %56, label %59

56:                                               ; preds = %52
  %57 = load i32, ptr %5, align 4
  %58 = call ptr @__errno_location() #7
  store i32 %57, ptr %58, align 4
  call void (ptr, ...) @fatal_abort(ptr noundef @.str.6, ptr noundef @__func__.preempt_g_init) #8
  unreachable

59:                                               ; preds = %52
  call void @llvm.lifetime.end.p0(i64 4, ptr %5) #6
  br label %60

60:                                               ; preds = %59
  br label %61

61:                                               ; preds = %60
  %62 = load i32, ptr %1, align 4
  call void @llvm.lifetime.end.p0(i64 8, ptr %3) #6
  call void @llvm.lifetime.end.p0(i64 8, ptr %2) #6
  call void @llvm.lifetime.end.p0(i64 4, ptr %1) #6
  ret i32 %62
}