; Function Attrs: nounwind uwtable
define dso_local i32 @preempt_g_init() local_unnamed_addr #0 {
  %1 = tail call i32 @pthread_mutex_lock(ptr noundef nonnull @g_context_lock) #8
  %.not = icmp eq i32 %1, 0
  br i1 %.not, label %4, label %2

2:                                                ; preds = %0
  %3 = tail call ptr @__errno_location() #9
  store i32 %1, ptr %3, align 4
  tail call void (ptr, ...) @fatal_abort(ptr noundef nonnull @.str.1, ptr noundef nonnull @__func__.preempt_g_init) #10
  unreachable

4:                                                ; preds = %0
  %5 = load i32, ptr @plugin_inited, align 4
  %.not11 = icmp eq i32 %5, 0
  br i1 %.not11, label %6, label %26

6:                                                ; preds = %4
  %7 = load ptr, ptr getelementptr inbounds nuw (i8, ptr @slurm_conf, i64 808), align 8
  %.not12 = icmp eq ptr %7, null
  br i1 %.not12, label %.sink.split, label %8

8:                                                ; preds = %6
  %9 = tail call ptr @plugin_context_create(ptr noundef nonnull @.str, ptr noundef nonnull %7, ptr noundef nonnull @ops, ptr noundef nonnull @syms, i64 noundef 24) #8
  store ptr %9, ptr @g_context, align 8
  %.not13 = icmp eq ptr %9, null
  br i1 %.not13, label %10, label %13

10:                                               ; preds = %8
  %11 = load ptr, ptr getelementptr inbounds nuw (i8, ptr @slurm_conf, i64 808), align 8
  %12 = tail call i32 (ptr, ...) @error(ptr noundef nonnull @.str.2, ptr noundef nonnull @.str, ptr noundef %11) #8
  br label %.sink.split

13:                                               ; preds = %8
  store i1 false, ptr @youngest_order, align 1
  %14 = load ptr, ptr getelementptr inbounds nuw (i8, ptr @slurm_conf, i64 800), align 8
  %15 = tail call ptr @xstrcasestr(ptr noundef %14, ptr noundef nonnull @.str.3) #8
  %.not14 = icmp eq ptr %15, null
  br i1 %.not14, label %16, label %19

16:                                               ; preds = %13
  %17 = load ptr, ptr getelementptr inbounds nuw (i8, ptr @slurm_conf, i64 1072), align 8
  %18 = tail call ptr @xstrcasestr(ptr noundef %17, ptr noundef nonnull @.str.4) #8
  %.not15 = icmp eq ptr %18, null
  br i1 %.not15, label %20, label %19

19:                                               ; preds = %16, %13
  store i1 true, ptr @youngest_order, align 1
  br label %20

20:                                               ; preds = %19, %16
  store i32 -2, ptr @min_exempt_priority, align 4
  %21 = load ptr, ptr getelementptr inbounds nuw (i8, ptr @slurm_conf, i64 800), align 8
  %22 = tail call ptr @xstrcasestr(ptr noundef %21, ptr noundef nonnull @.str.5) #8
  %.not16 = icmp eq ptr %22, null
  br i1 %.not16, label %.sink.split, label %23

23:                                               ; preds = %20
  %24 = getelementptr inbounds nuw i8, ptr %22, i64 20
  %25 = tail call i32 @parse_uint32(ptr noundef nonnull %24, ptr noundef nonnull @min_exempt_priority) #8
  br label %.sink.split

.sink.split:                                      ; preds = %20, %23, %6, %10
  %.sink = phi i32 [ 0, %10 ], [ 1, %6 ], [ 2, %23 ], [ 2, %20 ]
  %.1.ph = phi i32 [ -1, %10 ], [ 0, %6 ], [ %25, %23 ], [ 0, %20 ]
  store i32 %.sink, ptr @plugin_inited, align 4
  br label %26

26:                                               ; preds = %.sink.split, %4
  %.1 = phi i32 [ 0, %4 ], [ %.1.ph, %.sink.split ]
  %27 = tail call i32 @pthread_mutex_unlock(ptr noundef nonnull @g_context_lock) #8
  %.not17 = icmp eq i32 %27, 0
  br i1 %.not17, label %30, label %28

28:                                               ; preds = %26
  %29 = tail call ptr @__errno_location() #9
  store i32 %27, ptr %29, align 4
  tail call void (ptr, ...) @fatal_abort(ptr noundef nonnull @.str.6, ptr noundef nonnull @__func__.preempt_g_init) #10
  unreachable

30:                                               ; preds = %26
  ret i32 %.1
}